target datalayout = "e-m:e-p270:32:32-p271:32:32-p272:64:64-i64:64-i128:128-f80:128-n8:16:32:64-S128"
target triple = "x86_64-pc-linux-gnu"

%class.Node = type <{ ptr, ptr, ptr, i32, i32, i32, i32, i32, i32, i32, [4 x i8] }>
%class.Type = type <{ ptr, ptr, i32, [4 x i8] }>
%class.Phase = type { i32, ptr }
%class.PhaseValues = type { %class.PhaseTransform, i8, ptr, ptr, [137 x ptr], [137 x ptr], [20 x ptr] }
%class.PhaseTransform = type { ptr, %class.Phase }
%class.markWord = type { i64 }
%class.anon.30 = type { i8 }
%class.Type_Array = type { ptr, i32, ptr }
%class.oopDesc = type { %class.markWord, %"union.oopDesc::_metadata" }
%"union.oopDesc::_metadata" = type { ptr }

@UseCompressedClassPointers = external global i8, align 1

; Function Attrs: mustprogress nounwind uwtable
define linkonce_odr hidden noundef i64 @_ZZN7oopDesc21klass_offset_in_bytesEvENKUlvE_clEv(ptr noundef nonnull align 1 dereferenceable(1) %0) #1 comdat align 2 {
  %2 = alloca ptr, align 8
  %3 = alloca [16 x i8], align 16
  %4 = alloca ptr, align 8
  %5 = alloca ptr, align 8
  store ptr %0, ptr %2, align 8
  %6 = getelementptr inbounds [16 x i8], ptr %3, i64 0, i64 0
  store ptr %6, ptr %4, align 8
  %7 = load ptr, ptr %4, align 8
  %8 = getelementptr inbounds %class.oopDesc, ptr %7, i32 0, i32 1
  store ptr %8, ptr %5, align 8
  %9 = load ptr, ptr %5, align 8
  %10 = getelementptr inbounds [16 x i8], ptr %3, i64 0, i64 0
  %11 = ptrtoint ptr %9 to i64
  %12 = ptrtoint ptr %10 to i64
  %13 = sub i64 %11, %12
  ret i64 %13
}

; Function Attrs: mustprogress nounwind uwtable
define linkonce_odr hidden noundef i32 @_ZN7oopDesc21klass_offset_in_bytesEv() #1 comdat align 2 {
  %1 = alloca %class.anon.30, align 1
  %2 = call noundef i64 @_ZZN7oopDesc21klass_offset_in_bytesEvENKUlvE_clEv(ptr noundef nonnull align 1 dereferenceable(1) %1)
  %3 = trunc i64 %2 to i32
  ret i32 %3
}

; Function Attrs: mustprogress nounwind uwtable
define linkonce_odr hidden noundef ptr @_ZNK4Node16as_AllocateArrayEv(ptr noundef nonnull align 8 dereferenceable(52) %0) #1 comdat align 2 {
  %2 = alloca ptr, align 8
  store ptr %0, ptr %2, align 8
  %3 = load ptr, ptr %2, align 8
  ret ptr %3
}

; Function Attrs: mustprogress nounwind uwtable
define linkonce_odr hidden noundef zeroext i1 @_ZNK4Node16is_AllocateArrayEv(ptr noundef nonnull align 8 dereferenceable(52) %0) #1 comdat align 2 {
  %2 = alloca ptr, align 8
  store ptr %0, ptr %2, align 8
  %3 = load ptr, ptr %2, align 8
  %4 = getelementptr inbounds %class.Node, ptr %3, i32 0, i32 8
  %5 = load i32, ptr %4, align 4
  %6 = and i32 %5, 127
  %7 = icmp eq i32 %6, 103
  ret i1 %7
}

; Function Attrs: mustprogress nounwind uwtable
define linkonce_odr hidden noundef i32 @_ZN7oopDesc25klass_gap_offset_in_bytesEv() #1 comdat align 2 {
  %1 = call noundef i32 @_ZN7oopDesc21klass_offset_in_bytesEv()
  %2 = sext i32 %1 to i64
  %3 = add i64 %2, 4
  %4 = trunc i64 %3 to i32
  ret i32 %4
}

; Function Attrs: mustprogress nounwind uwtable
define linkonce_odr hidden noundef ptr @_ZNK10Type_Array11fast_lookupEj(ptr noundef nonnull align 8 dereferenceable(24) %0, i32 noundef %1) #1 comdat align 2 {
  %3 = alloca ptr, align 8
  %4 = alloca i32, align 4
  store ptr %0, ptr %3, align 8
  store i32 %1, ptr %4, align 4
  %5 = load ptr, ptr %3, align 8
  %6 = getelementptr inbounds %class.Type_Array, ptr %5, i32 0, i32 2
  %7 = load ptr, ptr %6, align 8
  %8 = load i32, ptr %4, align 4
  %9 = zext i32 %8 to i64
  %10 = getelementptr inbounds ptr, ptr %7, i64 %9
  %11 = load ptr, ptr %10, align 8
  ret ptr %11
}

; Function Attrs: mustprogress nounwind uwtable
define linkonce_odr hidden noundef ptr @_ZN17AllocateArrayNode12Ideal_lengthEv(ptr noundef nonnull align 8 dereferenceable(131) %0) #1 comdat align 2 {
  %2 = alloca ptr, align 8
  store ptr %0, ptr %2, align 8
  %3 = load ptr, ptr %2, align 8
  %4 = call noundef ptr @_ZNK4Node2inEj(ptr noundef nonnull align 8 dereferenceable(52) %3, i32 noundef 8)
  ret ptr %4
}

; Function Attrs: mustprogress nounwind uwtable
define linkonce_odr hidden noundef ptr @_ZN17AllocateArrayNode22Ideal_array_allocationEP4Node(ptr noundef %0) #1 comdat align 2 {
  %2 = alloca ptr, align 8
  %3 = alloca ptr, align 8
  store ptr %0, ptr %2, align 8
  %4 = load ptr, ptr %2, align 8
  %5 = call noundef ptr @_ZN12AllocateNode16Ideal_allocationEP4Node(ptr noundef %4)
  store ptr %5, ptr %3, align 8
  %6 = load ptr, ptr %3, align 8
  %7 = icmp eq ptr %6, null
  br i1 %7, label %11, label %8

8:                                                ; preds = %1
  %9 = load ptr, ptr %3, align 8
  %10 = call noundef zeroext i1 @_ZNK4Node16is_AllocateArrayEv(ptr noundef nonnull align 8 dereferenceable(52) %9)
  br i1 %10, label %12, label %11

11:                                               ; preds = %8, %1
  br label %15

12:                                               ; preds = %8
  %13 = load ptr, ptr %3, align 8
  %14 = call noundef ptr @_ZNK4Node16as_AllocateArrayEv(ptr noundef nonnull align 8 dereferenceable(52) %13)
  br label %15

15:                                               ; preds = %12, %11
  %16 = phi ptr [ null, %11 ], [ %14, %12 ]
  ret ptr %16
}

; Function Attrs: mustprogress nounwind uwtable
define linkonce_odr hidden noundef i32 @_ZN12arrayOopDesc22length_offset_in_bytesEv() #1 comdat align 2 {
  %1 = load i8, ptr @UseCompressedClassPointers, align 1
  %2 = trunc i8 %1 to i1
  br i1 %2, label %3, label %6

3:                                                ; preds = %0
  %4 = call noundef i32 @_ZN7oopDesc25klass_gap_offset_in_bytesEv()
  %5 = sext i32 %4 to i64
  br label %7

6:                                                ; preds = %0
  br label %7

7:                                                ; preds = %6, %3
  %8 = phi i64 [ %5, %3 ], [ 16, %6 ]
  %9 = trunc i64 %8 to i32
  ret i32 %9
}

; Function Attrs: mustprogress nounwind uwtable
define linkonce_odr hidden noundef ptr @_ZNK4Type10isa_aryptrEv(ptr noundef nonnull align 8 dereferenceable(20) %0) #1 comdat align 2 {
  %2 = alloca ptr, align 8
  store ptr %0, ptr %2, align 8
  %3 = load ptr, ptr %2, align 8
  %4 = getelementptr inbounds %class.Type, ptr %3, i32 0, i32 2
  %5 = load i32, ptr %4, align 8
  %6 = icmp eq i32 %5, 22
  br i1 %6, label %7, label %8

7:                                                ; preds = %1
  br label %9

8:                                                ; preds = %1
  br label %9

9:                                                ; preds = %8, %7
  %10 = phi ptr [ %3, %7 ], [ null, %8 ]
  ret ptr %10
}

; Function Attrs: mustprogress nounwind uwtable
define linkonce_odr hidden noundef ptr @_ZNK11PhaseValues4typeEPK4Node(ptr noundef nonnull align 8 dereferenceable(2400) %0, ptr noundef %1) #1 comdat align 2 {
  %3 = alloca ptr, align 8
  %4 = alloca ptr, align 8
  %5 = alloca ptr, align 8
  store ptr %0, ptr %3, align 8
  store ptr %1, ptr %4, align 8
  %6 = load ptr, ptr %3, align 8
  %7 = getelementptr inbounds %class.PhaseValues, ptr %6, i32 0, i32 3
  %8 = load ptr, ptr %7, align 8
  %9 = load ptr, ptr %4, align 8
  %10 = getelementptr inbounds %class.Node, ptr %9, i32 0, i32 7
  %11 = load i32, ptr %10, align 8
  %12 = call noundef ptr @_ZNK10Type_Array11fast_lookupEj(ptr noundef nonnull align 8 dereferenceable(24) %8, i32 noundef %11)
  store ptr %12, ptr %5, align 8
  %13 = load ptr, ptr %5, align 8
  ret ptr %13
}

; Function Attrs: mustprogress nounwind uwtable
define linkonce_odr hidden noundef ptr @_ZNK4Node2inEj(ptr noundef nonnull align 8 dereferenceable(52) %0, i32 noundef %1) #1 comdat align 2 {
  %3 = alloca ptr, align 8
  %4 = alloca i32, align 4
  store ptr %0, ptr %3, align 8
  store i32 %1, ptr %4, align 4
  %5 = load ptr, ptr %3, align 8
  %6 = getelementptr inbounds %class.Node, ptr %5, i32 0, i32 1
  %7 = load ptr, ptr %6, align 8
  %8 = load i32, ptr %4, align 4
  %9 = zext i32 %8 to i64
  %10 = getelementptr inbounds ptr, ptr %7, i64 %9
  %11 = load ptr, ptr %10, align 8
  ret ptr %11
}

; Function Attrs: mustprogress nounwind uwtable
define hidden noundef ptr @_ZN13LoadRangeNode8IdentityEP8PhaseGVN(ptr noundef nonnull align 8 dereferenceable(72) %0, ptr noundef %1) unnamed_addr #1 align 2 {
  %3 = alloca ptr, align 8
  %4 = alloca ptr, align 8
  %5 = alloca ptr, align 8
  %6 = alloca ptr, align 8
  %7 = alloca ptr, align 8
  %8 = alloca i64, align 8
  %9 = alloca ptr, align 8
  %10 = alloca ptr, align 8
  %11 = alloca ptr, align 8
  %12 = alloca ptr, align 8
  %13 = alloca ptr, align 8
  store ptr %0, ptr %4, align 8
  store ptr %1, ptr %5, align 8
  %14 = load ptr, ptr %4, align 8
  %15 = load ptr, ptr %5, align 8
  %16 = call noundef ptr @_ZN8LoadNode8IdentityEP8PhaseGVN(ptr noundef nonnull align 8 dereferenceable(72) %14, ptr noundef %15)
  store ptr %16, ptr %6, align 8
  %17 = load ptr, ptr %6, align 8
  %18 = icmp ne ptr %17, %14
  br i1 %18, label %19, label %21

19:                                               ; preds = %2
  %20 = load ptr, ptr %6, align 8
  store ptr %20, ptr %3, align 8
  br label %62

21:                                               ; preds = %2
  %22 = call noundef ptr @_ZNK4Node2inEj(ptr noundef nonnull align 8 dereferenceable(52) %14, i32 noundef 2)
  store ptr %22, ptr %7, align 8
  store i64 0, ptr %8, align 8
  %23 = load ptr, ptr %7, align 8
  %24 = load ptr, ptr %5, align 8
  %25 = call noundef ptr @_ZN8AddPNode21Ideal_base_and_offsetEP4NodeP11PhaseValuesRl(ptr noundef %23, ptr noundef %24, ptr noundef nonnull align 8 dereferenceable(8) %8)
  store ptr %25, ptr %9, align 8
  %26 = load ptr, ptr %9, align 8
  %27 = icmp eq ptr %26, null
  br i1 %27, label %28, label %29

28:                                               ; preds = %21
  store ptr %14, ptr %3, align 8
  br label %62

29:                                               ; preds = %21
  %30 = load ptr, ptr %5, align 8
  %31 = load ptr, ptr %7, align 8
  %32 = call noundef ptr @_ZNK11PhaseValues4typeEPK4Node(ptr noundef nonnull align 8 dereferenceable(2400) %30, ptr noundef %31)
  %33 = call noundef ptr @_ZNK4Type10isa_aryptrEv(ptr noundef nonnull align 8 dereferenceable(20) %32)
  store ptr %33, ptr %10, align 8
  %34 = load ptr, ptr %10, align 8
  %35 = icmp eq ptr %34, null
  br i1 %35, label %36, label %37

36:                                               ; preds = %29
  store ptr %14, ptr %3, align 8
  br label %62

37:                                               ; preds = %29
  %38 = load i64, ptr %8, align 8
  %39 = call noundef i32 @_ZN12arrayOopDesc22length_offset_in_bytesEv()
  %40 = sext i32 %39 to i64
  %41 = icmp eq i64 %38, %40
  br i1 %41, label %42, label %61

42:                                               ; preds = %37
  %43 = load ptr, ptr %9, align 8
  %44 = call noundef ptr @_ZN17AllocateArrayNode22Ideal_array_allocationEP4Node(ptr noundef %43)
  store ptr %44, ptr %11, align 8
  %45 = load ptr, ptr %11, align 8
  %46 = icmp ne ptr %45, null
  br i1 %46, label %47, label %60

47:                                               ; preds = %42
  %48 = load ptr, ptr %11, align 8
  %49 = call noundef ptr @_ZN17AllocateArrayNode12Ideal_lengthEv(ptr noundef nonnull align 8 dereferenceable(131) %48)
  store ptr %49, ptr %12, align 8
  %50 = load ptr, ptr %11, align 8
  %51 = load ptr, ptr %10, align 8
  %52 = load ptr, ptr %5, align 8
  %53 = call noundef ptr @_ZN17AllocateArrayNode17make_ideal_lengthEPK10TypeOopPtrP11PhaseValuesb(ptr noundef nonnull align 8 dereferenceable(131) %50, ptr noundef %51, ptr noundef %52, i1 noundef zeroext false)
  store ptr %53, ptr %13, align 8
  %54 = load ptr, ptr %12, align 8
  %55 = load ptr, ptr %13, align 8
  %56 = icmp eq ptr %54, %55
  br i1 %56, label %57, label %59

57:                                               ; preds = %47
  %58 = load ptr, ptr %12, align 8
  store ptr %58, ptr %3, align 8
  br label %62

59:                                               ; preds = %47
  br label %60

60:                                               ; preds = %59, %42
  br label %61

61:                                               ; preds = %60, %37
  store ptr %14, ptr %3, align 8
  br label %62

62:                                               ; preds = %61, %57, %36, %28, %19
  %63 = load ptr, ptr %3, align 8
  ret ptr %63
}