; Function Attrs: mustprogress nounwind uwtable
define hidden noundef ptr @_ZN13LoadRangeNode8IdentityEP8PhaseGVN(ptr noundef nonnull align 8 dereferenceable(72) %0, ptr noundef %1) unnamed_addr #1 align 2 {
  %3 = alloca i64, align 8
  %4 = tail call noundef ptr @_ZN8LoadNode8IdentityEP8PhaseGVN(ptr noundef nonnull align 8 dereferenceable(72) %0, ptr noundef %1)
  %.not = icmp eq ptr %4, %0
  br i1 %.not, label %5, label %47

5:                                                ; preds = %2
  %6 = getelementptr inbounds i8, ptr %0, i64 8
  %7 = load ptr, ptr %6, align 8
  %8 = getelementptr inbounds i8, ptr %7, i64 16
  %9 = load ptr, ptr %8, align 8
  store i64 0, ptr %3, align 8
  %10 = call noundef ptr @_ZN8AddPNode21Ideal_base_and_offsetEP4NodeP11PhaseValuesRl(ptr noundef %9, ptr noundef %1, ptr noundef nonnull align 8 dereferenceable(8) %3) #13
  %11 = icmp eq ptr %10, null
  br i1 %11, label %47, label %12

12:                                               ; preds = %5
  %13 = getelementptr inbounds i8, ptr %1, i64 40
  %14 = load ptr, ptr %13, align 8
  %15 = getelementptr inbounds i8, ptr %9, i64 40
  %16 = load i32, ptr %15, align 8
  %17 = getelementptr inbounds i8, ptr %14, i64 16
  %18 = load ptr, ptr %17, align 8
  %19 = zext i32 %16 to i64
  %20 = getelementptr inbounds ptr, ptr %18, i64 %19
  %21 = load ptr, ptr %20, align 8
  %22 = getelementptr inbounds i8, ptr %21, i64 16
  %23 = load i32, ptr %22, align 8
  %24 = icmp ne i32 %23, 22
  %25 = icmp eq ptr %21, null
  %26 = or i1 %25, %24
  br i1 %26, label %47, label %27

27:                                               ; preds = %12
  %28 = load i64, ptr %3, align 8
  %29 = load i8, ptr @UseCompressedClassPointers, align 1
  %30 = trunc i8 %29 to i1
  %31 = select i1 %30, i64 12, i64 16
  %32 = icmp eq i64 %28, %31
  br i1 %32, label %33, label %_ZN17AllocateArrayNode22Ideal_array_allocationEP4Node.exit.thread

33:                                               ; preds = %27
  %34 = call noundef ptr @_ZN12AllocateNode16Ideal_allocationEP4Node(ptr noundef nonnull %10) #13
  %35 = icmp eq ptr %34, null
  br i1 %35, label %_ZN17AllocateArrayNode22Ideal_array_allocationEP4Node.exit.thread, label %36

36:                                               ; preds = %33
  %37 = getelementptr inbounds i8, ptr %34, i64 44
  %38 = load i32, ptr %37, align 4
  %39 = and i32 %38, 127
  %40 = icmp eq i32 %39, 103
  br i1 %40, label %_ZN17AllocateArrayNode22Ideal_array_allocationEP4Node.exit, label %_ZN17AllocateArrayNode22Ideal_array_allocationEP4Node.exit.thread

_ZN17AllocateArrayNode22Ideal_array_allocationEP4Node.exit: ; preds = %36
  %41 = getelementptr inbounds i8, ptr %34, i64 8
  %42 = load ptr, ptr %41, align 8
  %43 = getelementptr inbounds i8, ptr %42, i64 64
  %44 = load ptr, ptr %43, align 8
  %45 = call noundef ptr @_ZN17AllocateArrayNode17make_ideal_lengthEPK10TypeOopPtrP11PhaseValuesb(ptr noundef nonnull align 8 dereferenceable(131) %34, ptr noundef nonnull %21, ptr noundef nonnull %1, i1 noundef zeroext false) #13
  %46 = icmp eq ptr %44, %45
  br i1 %46, label %47, label %_ZN17AllocateArrayNode22Ideal_array_allocationEP4Node.exit.thread

_ZN17AllocateArrayNode22Ideal_array_allocationEP4Node.exit.thread: ; preds = %36, %33, %_ZN17AllocateArrayNode22Ideal_array_allocationEP4Node.exit, %27
  br label %47

47:                                               ; preds = %_ZN17AllocateArrayNode22Ideal_array_allocationEP4Node.exit, %12, %5, %2, %_ZN17AllocateArrayNode22Ideal_array_allocationEP4Node.exit.thread
  %.0 = phi ptr [ %0, %_ZN17AllocateArrayNode22Ideal_array_allocationEP4Node.exit.thread ], [ %4, %2 ], [ %0, %5 ], [ %0, %12 ], [ %44, %_ZN17AllocateArrayNode22Ideal_array_allocationEP4Node.exit ]
  ret ptr %.0
}